(dp1
S'OriginalConfig'
p2
ccopy_reg
_reconstructor
p3
(cWMCore.Configuration
Configuration
p4
c__builtin__
object
p5
NtRp6
(dp7
S'Site'
p8
g3
(cWMCore.Configuration
ConfigSection
p9
g5
NtRp10
(dp11
S'_internal_skipChecks'
p12
I00
sS'_internal_documentation'
p13
S''
sS'_internal_settings'
p14
c__builtin__
set
p15
((lp16
S'storageSite'
p17
atRp18
sS'_internal_name'
p19
g8
sS'_internal_docstrings'
p20
(dp21
sS'_internal_children'
p22
g15
((ltRp23
sg17
S'T2_DE_DESY'
p24
sS'_internal_parent_ref'
p25
NsbsS'_internal_sections'
p26
(lp27
S'General'
p28
aS'JobType'
p29
aS'Data'
p30
ag8
aS'User'
p31
aS'Debug'
p32
asg28
g3
(g9
g5
NtRp33
(dp34
S'transferLogs'
p35
I01
sg12
I00
sg13
S''
sg14
g15
((lp36
g35
aS'transferOutputs'
p37
aS'workArea'
p38
aS'requestName'
p39
atRp40
sg19
g28
sg20
(dp41
sg37
I01
sg22
g15
((ltRp42
sg39
S'QCD_Flat_Pt-15to7000_TuneCUETP8M1_14TeV_PhaseIITDRFall17_PU200_HopeMore'
p43
sg25
Nsg38
S'crab_Graviton'
p44
sbsS'_internal_webapps'
p45
(lp46
sg31
g3
(g9
g5
NtRp47
(dp48
g12
I00
sg13
S''
sg14
g15
((ltRp49
sg19
g31
sg20
(dp50
sg22
g15
((ltRp51
sg25
NsbsS'_internal_components'
p52
(lp53
sg32
g3
(g9
g5
NtRp54
(dp55
g12
I00
sg13
S''
sg14
g15
((ltRp56
sg19
g32
sg20
(dp57
sg22
g15
((ltRp58
sg25
Nsbsg30
g3
(g9
g5
NtRp59
(dp60
S'inputDataset'
p61
S'/QCD_Flat_Pt-15to7000_TuneCUETP8M1_14TeV_pythia8/PhaseIITDRFall17MiniAOD-PU200_93X_upgrade2023_realistic_v2-v1/MINIAODSIM'
p62
sS'allowNonValidInputDataset'
p63
I01
sg12
I00
sS'splitting'
p64
S'EventAwareLumiBased'
p65
sS'unitsPerJob'
p66
I500
sg13
S''
sg14
g15
((lp67
g61
ag63
aS'publication'
p68
ag66
aS'inputDBS'
p69
ag64
aS'outLFNDirBase'
p70
atRp71
sg19
g30
sg69
S'global'
p72
sg20
(dp73
sg22
g15
((ltRp74
sg70
S'/store/user/izoi/RunII_93X_v2-v1/QCD_flat_PU200_HopeMore'
p75
sg25
Nsg68
I00
sbsg29
g3
(g9
g5
NtRp76
(dp77
S'sendExternalFolder'
p78
I01
sS'outputFiles'
p79
(lp80
S'Ntuple_AK8.root'
p81
asg12
I00
sg13
S''
sg14
g15
((lp82
S'psetName'
p83
aS'pluginName'
p84
ag79
aS'maxMemoryMB'
p85
ag78
atRp86
sg19
g29
sg20
(dp87
sg84
S'Analysis'
p88
sg22
g15
((ltRp89
sg83
S'/nfs/dust/cms/user/zoiirene/UpgradeStudiesGtoWW/framework93X/new932/CMSSW_9_3_2/src/UHH2/core/python/ntuplewriter_93X_irene.py'
p90
sg25
Nsg85
I2500
sbsbsS'voGroup'
p91
S''
sS'Server'
p92
S'cmsweb.cern.ch'
p93
sS'instance'
p94
S'prod'
p95
sS'RequestName'
p96
V171103_174400:izoi_crab_QCD_Flat_Pt-15to7000_TuneCUETP8M1_14TeV_PhaseIITDRFall17_PU200_HopeMore
p97
sS'voRole'
p98
S'NULL'
p99
sS'Port'
p100
S''
s.