(dp1
S'OriginalConfig'
p2
ccopy_reg
_reconstructor
p3
(cWMCore.Configuration
Configuration
p4
c__builtin__
object
p5
NtRp6
(dp7
S'Site'
p8
g3
(cWMCore.Configuration
ConfigSection
p9
g5
NtRp10
(dp11
S'_internal_skipChecks'
p12
I00
sS'_internal_documentation'
p13
S''
sS'_internal_settings'
p14
c__builtin__
set
p15
((lp16
S'storageSite'
p17
atRp18
sS'_internal_name'
p19
g8
sS'_internal_docstrings'
p20
(dp21
sS'_internal_children'
p22
g15
((ltRp23
sg17
S'T2_DE_DESY'
p24
sS'_internal_parent_ref'
p25
NsbsS'_internal_sections'
p26
(lp27
S'General'
p28
aS'JobType'
p29
aS'Data'
p30
ag8
aS'User'
p31
aS'Debug'
p32
asg28
g3
(g9
g5
NtRp33
(dp34
S'transferLogs'
p35
I01
sg12
I00
sg13
S''
sg14
g15
((lp36
g35
aS'transferOutputs'
p37
aS'workArea'
p38
aS'requestName'
p39
atRp40
sg19
g28
sg20
(dp41
sg37
I01
sg22
g15
((ltRp42
sg39
S'VBF_BulkGravToWW_narrow_M-2000_14TeV_PhaseIITDRFall17_noPU_try'
p43
sg25
Nsg38
S'crab_Graviton'
p44
sbsS'_internal_webapps'
p45
(lp46
sg31
g3
(g9
g5
NtRp47
(dp48
g12
I00
sg13
S''
sg14
g15
((ltRp49
sg19
g31
sg20
(dp50
sg22
g15
((ltRp51
sg25
NsbsS'_internal_components'
p52
(lp53
sg32
g3
(g9
g5
NtRp54
(dp55
g12
I00
sg13
S''
sg14
g15
((ltRp56
sg19
g32
sg20
(dp57
sg22
g15
((ltRp58
sg25
Nsbsg30
g3
(g9
g5
NtRp59
(dp60
S'inputDataset'
p61
S'/VBF_BulkGravToWW_narrow_M-2000_14TeV-madgraph/PhaseIITDRFall17MiniAOD-noPU_93X_upgrade2023_realistic_v2-v1/MINIAODSIM'
p62
sg12
I00
sS'splitting'
p63
S'EventAwareLumiBased'
p64
sS'unitsPerJob'
p65
I7500
sg13
S''
sg14
g15
((lp66
g61
aS'publication'
p67
ag65
aS'inputDBS'
p68
ag63
aS'outLFNDirBase'
p69
atRp70
sg19
g30
sg68
S'global'
p71
sg20
(dp72
sg22
g15
((ltRp73
sg69
S'/store/user/izoi/RunII_93X_v2-v1/'
p74
sg25
Nsg67
I00
sbsg29
g3
(g9
g5
NtRp75
(dp76
S'sendExternalFolder'
p77
I01
sS'outputFiles'
p78
(lp79
S'Ntuple.root'
p80
asg12
I00
sg13
S''
sg14
g15
((lp81
S'psetName'
p82
aS'pluginName'
p83
ag78
aS'maxMemoryMB'
p84
ag77
atRp85
sg19
g29
sg20
(dp86
sg83
S'Analysis'
p87
sg22
g15
((ltRp88
sg82
S'/nfs/dust/cms/user/zoiirene/UpgradeStudiesGtoWW/framework93X/new932/CMSSW_9_3_2/src/UHH2/core/python/ntuplewriter_93X_irene.py'
p89
sg25
Nsg84
I2500
sbsbsS'voGroup'
p90
S''
sS'Server'
p91
S'cmsweb.cern.ch'
p92
sS'instance'
p93
S'prod'
p94
sS'RequestName'
p95
V171026_143850:izoi_crab_VBF_BulkGravToWW_narrow_M-2000_14TeV_PhaseIITDRFall17_noPU_try
p96
sS'voRole'
p97
S'NULL'
p98
sS'Port'
p99
S''
s.